; Function Attrs: nounwind uwtable
define internal void @res_chg_event_cb(ptr noundef %0) #0 {
  %2 = tail call ptr @lv_event_get_current_target(ptr noundef %0) #6
  %3 = tail call ptr @lv_display_get_driver_data(ptr noundef %2) #6
  %4 = getelementptr inbounds nuw i8, ptr %3, i64 84
  %5 = load i8, ptr %4, align 4, !tbaa !32
  %6 = icmp eq i8 %5, 0
  br i1 %6, label %7, label %20

7:                                                ; preds = %1
  %8 = load ptr, ptr %3, align 8, !tbaa !22
  %9 = load i32, ptr %2, align 8, !tbaa !11
  %10 = sitofp i32 %9 to float
  %11 = getelementptr inbounds nuw i8, ptr %3, i64 80
  %12 = load float, ptr %11, align 8, !tbaa !7
  %13 = fmul float %12, %10
  %14 = fptosi float %13 to i32
  %15 = getelementptr inbounds nuw i8, ptr %2, i64 4
  %16 = load i32, ptr %15, align 4, !tbaa !21
  %17 = sitofp i32 %16 to float
  %18 = fmul float %12, %17
  %19 = fptosi float %18 to i32
  tail call void @SDL_SetWindowSize(ptr noundef %8, i32 noundef %14, i32 noundef %19) #6
  br label %20

20:                                               ; preds = %7, %1
  tail call fastcc void @texture_resize(ptr noundef %2)
  ret void
}